target datalayout = "e-m:e-p270:32:32-p271:32:32-p272:64:64-i64:64-i128:128-f80:128-n8:16:32:64-S128"
target triple = "x86_64-pc-linux-gnu"

%struct.Agobj_s = type { %struct.Agtag_s, ptr }
%struct.Agtag_s = type { i32, i64 }
%struct.Agnodeinfo_t = type { %struct.Agrec_s, ptr, ptr, %struct.pointf_s, double, double, %struct.boxf, double, double, double, double, double, ptr, ptr, ptr, i8, i8, i8, i8, i32, i32, i32, ptr, double, i8, i8, ptr, ptr, i8, i64, i8, i8, i8, ptr, ptr, %struct.elist, %struct.elist, %struct.elist, %struct.elist, %struct.elist, ptr, i32, ptr, i32, i32, double, %struct.elist, %struct.elist, %struct.elist, %struct.elist, ptr, i32, i32, i32, [1 x double] }
%struct.Agrec_s = type { ptr, ptr }
%struct.pointf_s = type { double, double }
%struct.boxf = type { %struct.pointf_s, %struct.pointf_s }
%struct.elist = type { ptr, i64 }
%struct.Agraphinfo_t = type { %struct.Agrec_s, ptr, ptr, %struct.boxf, [4 x %struct.pointf_s], i8, i8, i8, i8, i32, double, double, i16, ptr, ptr, ptr, ptr, i32, ptr, ptr, ptr, ptr, i16, i16, i32, ptr, ptr, ptr, ptr, ptr, i32, ptr, ptr, %struct.nlist_t, ptr, ptr, i32, i32, i8, i8, i32, i32, i32, ptr, ptr, ptr, ptr, i8, i8, i8, i8, i8 }
%struct.nlist_t = type { ptr, i64 }

; Function Attrs: nounwind uwtable
define void @delete_fast_node(ptr noundef %0, ptr noundef %1) #0 {
  %3 = alloca ptr, align 8
  %4 = alloca ptr, align 8
  store ptr %0, ptr %3, align 8, !tbaa !75
  store ptr %1, ptr %4, align 8, !tbaa !3
  %5 = load ptr, ptr %4, align 8, !tbaa !3
  %6 = getelementptr inbounds nuw %struct.Agobj_s, ptr %5, i32 0, i32 1
  %7 = load ptr, ptr %6, align 8, !tbaa !8
  %8 = getelementptr inbounds nuw %struct.Agnodeinfo_t, ptr %7, i32 0, i32 33
  %9 = load ptr, ptr %8, align 8, !tbaa !86
  %10 = icmp ne ptr %9, null
  br i1 %10, label %11, label %25

11:                                               ; preds = %2
  %12 = load ptr, ptr %4, align 8, !tbaa !3
  %13 = getelementptr inbounds nuw %struct.Agobj_s, ptr %12, i32 0, i32 1
  %14 = load ptr, ptr %13, align 8, !tbaa !8
  %15 = getelementptr inbounds nuw %struct.Agnodeinfo_t, ptr %14, i32 0, i32 34
  %16 = load ptr, ptr %15, align 8, !tbaa !87
  %17 = load ptr, ptr %4, align 8, !tbaa !3
  %18 = getelementptr inbounds nuw %struct.Agobj_s, ptr %17, i32 0, i32 1
  %19 = load ptr, ptr %18, align 8, !tbaa !8
  %20 = getelementptr inbounds nuw %struct.Agnodeinfo_t, ptr %19, i32 0, i32 33
  %21 = load ptr, ptr %20, align 8, !tbaa !86
  %22 = getelementptr inbounds nuw %struct.Agobj_s, ptr %21, i32 0, i32 1
  %23 = load ptr, ptr %22, align 8, !tbaa !8
  %24 = getelementptr inbounds nuw %struct.Agnodeinfo_t, ptr %23, i32 0, i32 34
  store ptr %16, ptr %24, align 8, !tbaa !87
  br label %25

25:                                               ; preds = %11, %2
  %26 = load ptr, ptr %4, align 8, !tbaa !3
  %27 = getelementptr inbounds nuw %struct.Agobj_s, ptr %26, i32 0, i32 1
  %28 = load ptr, ptr %27, align 8, !tbaa !8
  %29 = getelementptr inbounds nuw %struct.Agnodeinfo_t, ptr %28, i32 0, i32 34
  %30 = load ptr, ptr %29, align 8, !tbaa !87
  %31 = icmp ne ptr %30, null
  br i1 %31, label %32, label %46

32:                                               ; preds = %25
  %33 = load ptr, ptr %4, align 8, !tbaa !3
  %34 = getelementptr inbounds nuw %struct.Agobj_s, ptr %33, i32 0, i32 1
  %35 = load ptr, ptr %34, align 8, !tbaa !8
  %36 = getelementptr inbounds nuw %struct.Agnodeinfo_t, ptr %35, i32 0, i32 33
  %37 = load ptr, ptr %36, align 8, !tbaa !86
  %38 = load ptr, ptr %4, align 8, !tbaa !3
  %39 = getelementptr inbounds nuw %struct.Agobj_s, ptr %38, i32 0, i32 1
  %40 = load ptr, ptr %39, align 8, !tbaa !8
  %41 = getelementptr inbounds nuw %struct.Agnodeinfo_t, ptr %40, i32 0, i32 34
  %42 = load ptr, ptr %41, align 8, !tbaa !87
  %43 = getelementptr inbounds nuw %struct.Agobj_s, ptr %42, i32 0, i32 1
  %44 = load ptr, ptr %43, align 8, !tbaa !8
  %45 = getelementptr inbounds nuw %struct.Agnodeinfo_t, ptr %44, i32 0, i32 33
  store ptr %37, ptr %45, align 8, !tbaa !86
  br label %56

46:                                               ; preds = %25
  %47 = load ptr, ptr %4, align 8, !tbaa !3
  %48 = getelementptr inbounds nuw %struct.Agobj_s, ptr %47, i32 0, i32 1
  %49 = load ptr, ptr %48, align 8, !tbaa !8
  %50 = getelementptr inbounds nuw %struct.Agnodeinfo_t, ptr %49, i32 0, i32 33
  %51 = load ptr, ptr %50, align 8, !tbaa !86
  %52 = load ptr, ptr %3, align 8, !tbaa !75
  %53 = getelementptr inbounds nuw %struct.Agobj_s, ptr %52, i32 0, i32 1
  %54 = load ptr, ptr %53, align 8, !tbaa !8
  %55 = getelementptr inbounds nuw %struct.Agraphinfo_t, ptr %54, i32 0, i32 27
  store ptr %51, ptr %55, align 8, !tbaa !76
  br label %56

56:                                               ; preds = %46, %32
  ret void
}