; Function Attrs: mustprogress nofree norecurse nosync nounwind willreturn memory(readwrite, inaccessiblemem: none) uwtable
define void @delete_fast_node(ptr noundef readonly captures(none) %0, ptr noundef readonly captures(none) %1) local_unnamed_addr #5 {
  %3 = getelementptr inbounds nuw i8, ptr %1, i64 16
  %4 = load ptr, ptr %3, align 8, !tbaa !3
  %5 = getelementptr inbounds nuw i8, ptr %4, i64 240
  %6 = load ptr, ptr %5, align 8, !tbaa !72
  %.not = icmp eq ptr %6, null
  %.phi.trans.insert = getelementptr inbounds nuw i8, ptr %4, i64 248
  %.pre = load ptr, ptr %.phi.trans.insert, align 8, !tbaa !73
  br i1 %.not, label %._crit_edge, label %7

7:                                                ; preds = %2
  %8 = getelementptr inbounds nuw i8, ptr %6, i64 16
  %9 = load ptr, ptr %8, align 8, !tbaa !3
  %10 = getelementptr inbounds nuw i8, ptr %9, i64 248
  store ptr %.pre, ptr %10, align 8, !tbaa !73
  br label %._crit_edge

._crit_edge:                                      ; preds = %2, %7
  %.not9 = icmp eq ptr %.pre, null
  %..pre = select i1 %.not9, ptr %0, ptr %.pre
  %. = select i1 %.not9, i64 256, i64 240
  %11 = getelementptr inbounds nuw i8, ptr %..pre, i64 16
  %12 = load ptr, ptr %11, align 8, !tbaa !3
  %13 = getelementptr inbounds nuw i8, ptr %12, i64 %.
  store ptr %6, ptr %13, align 8, !tbaa !74
  ret void
}